; Function Attrs: mustprogress nounwind uwtable
define internal fastcc void @"_ZNSt5_BindIFZN3nix5Store12queryMissingERKSt6vectorINS0_11DerivedPathESaIS3_EERSt3setINS0_9StorePathESt4lessIS9_ESaIS9_EESE_SE_RmSF_E3$_1S9_NS0_3refINS0_10DerivationEEES9_NSH_INS0_4SyncIZNS1_12queryMissingES7_SE_SE_SE_SF_SF_E8DrvStateSt5mutexEEEEEED2Ev"(ptr noundef nonnull align 8 dereferenceable(128) %0) unnamed_addr #6 align 2 personality ptr @__gxx_personality_v0 {
  %2 = getelementptr inbounds i8, ptr %0, i64 96
  %3 = load ptr, ptr %2, align 8
  %4 = getelementptr inbounds i8, ptr %0, i64 112
  %5 = icmp eq ptr %3, %4
  br i1 %5, label %_ZNKSt7__cxx1112basic_stringIcSt11char_traitsIcESaIcEE11_M_is_localEv.exit.thread.i.i.i.i.i.i, label %_ZNKSt7__cxx1112basic_stringIcSt11char_traitsIcESaIcEE11_M_is_localEv.exit.i.i.i.i.i.i

_ZNKSt7__cxx1112basic_stringIcSt11char_traitsIcESaIcEE11_M_is_localEv.exit.thread.i.i.i.i.i.i: ; preds = %1
  %6 = getelementptr inbounds i8, ptr %0, i64 104
  %7 = load i64, ptr %6, align 8
  %8 = icmp ult i64 %7, 16
  tail call void @llvm.assume(i1 %8)
  br label %_ZNSt5tupleIJN3nix9StorePathENS0_3refINS0_10DerivationEEES1_NS2_INS0_4SyncIZNS0_5Store12queryMissingERKSt6vectorINS0_11DerivedPathESaIS8_EERSt3setIS1_St4lessIS1_ESaIS1_EESI_SI_RmSJ_E8DrvStateSt5mutexEEEEEED2Ev.exit

_ZNKSt7__cxx1112basic_stringIcSt11char_traitsIcESaIcEE11_M_is_localEv.exit.i.i.i.i.i.i: ; preds = %1
  tail call void @_ZdlPv(ptr noundef %3) #32
  br label %_ZNSt5tupleIJN3nix9StorePathENS0_3refINS0_10DerivationEEES1_NS2_INS0_4SyncIZNS0_5Store12queryMissingERKSt6vectorINS0_11DerivedPathESaIS8_EERSt3setIS1_St4lessIS1_ESaIS1_EESI_SI_RmSJ_E8DrvStateSt5mutexEEEEEED2Ev.exit

_ZNSt5tupleIJN3nix9StorePathENS0_3refINS0_10DerivationEEES1_NS2_INS0_4SyncIZNS0_5Store12queryMissingERKSt6vectorINS0_11DerivedPathESaIS8_EERSt3setIS1_St4lessIS1_ESaIS1_EESI_SI_RmSJ_E8DrvStateSt5mutexEEEEEED2Ev.exit: ; preds = %_ZNKSt7__cxx1112basic_stringIcSt11char_traitsIcESaIcEE11_M_is_localEv.exit.thread.i.i.i.i.i.i, %_ZNKSt7__cxx1112basic_stringIcSt11char_traitsIcESaIcEE11_M_is_localEv.exit.i.i.i.i.i.i
  %9 = getelementptr inbounds i8, ptr %0, i64 32
  tail call void @_ZNSaIcED2Ev(ptr noundef nonnull align 1 dereferenceable(1) %2) #29
  tail call fastcc void @_ZNSt11_Tuple_implILm1EJN3nix3refINS0_10DerivationEEENS0_9StorePathENS1_INS0_4SyncIZNS0_5Store12queryMissingERKSt6vectorINS0_11DerivedPathESaIS8_EERSt3setIS4_St4lessIS4_ESaIS4_EESI_SI_RmSJ_E8DrvStateSt5mutexEEEEEED2Ev(ptr noundef nonnull align 8 dereferenceable(64) %9) #29
  ret void
}